; Function Attrs: mustprogress nounwind uwtable
define hidden noundef ptr @_ZN18ConstraintCastNode24make_cast_for_basic_typeEP4NodeS1_PK4TypeNS_14DependencyTypeE9BasicType(ptr noundef %0, ptr noundef %1, ptr noundef %2, i32 noundef %3, i8 noundef zeroext %4) local_unnamed_addr #0 align 2 {
  switch i8 %4, label %50 [
    i8 10, label %6
    i8 11, label %28
  ]

6:                                                ; preds = %5
  %7 = tail call align 8 ptr @llvm.threadlocal.address.p0(ptr align 8 @_ZN6Thread12_thr_currentE)
  %8 = load ptr, ptr %7, align 8
  %9 = getelementptr inbounds i8, ptr %8, i64 1808
  %10 = load ptr, ptr %9, align 8
  %11 = getelementptr inbounds i8, ptr %10, i64 128
  %12 = load ptr, ptr %11, align 8
  %13 = getelementptr inbounds i8, ptr %12, i64 728
  %14 = load ptr, ptr %13, align 8
  %15 = getelementptr inbounds i8, ptr %14, i64 40
  %16 = load ptr, ptr %15, align 8
  %17 = getelementptr inbounds i8, ptr %14, i64 32
  %18 = load ptr, ptr %17, align 8
  %19 = ptrtoint ptr %16 to i64
  %20 = ptrtoint ptr %18 to i64
  %21 = sub i64 %19, %20
  %.not.i.i.i = icmp ult i64 %21, 88
  br i1 %.not.i.i.i, label %24, label %22

22:                                               ; preds = %6
  %23 = getelementptr inbounds i8, ptr %18, i64 88
  store ptr %23, ptr %17, align 8
  br label %_ZN4NodenwEm.exit

24:                                               ; preds = %6
  %25 = tail call noundef ptr @_ZN5Arena4growEmN17AllocFailStrategy13AllocFailEnumE(ptr noundef nonnull align 8 dereferenceable(48) %14, i64 noundef 88, i32 noundef 0) #6
  br label %_ZN4NodenwEm.exit

_ZN4NodenwEm.exit:                                ; preds = %22, %24
  %.0.i.i.i = phi ptr [ %18, %22 ], [ %25, %24 ]
  %26 = icmp eq ptr %.0.i.i.i, null
  br i1 %26, label %53, label %27

27:                                               ; preds = %_ZN4NodenwEm.exit
  tail call void @_ZN10CastIINodeC2EP4NodeS1_PK4TypeN18ConstraintCastNode14DependencyTypeEbPK9TypeTuple(ptr noundef nonnull align 8 dereferenceable(81) %.0.i.i.i, ptr noundef %0, ptr noundef %1, ptr noundef %2, i32 noundef %3, i1 noundef zeroext false, ptr noundef null)
  br label %53

28:                                               ; preds = %5
  %29 = tail call align 8 ptr @llvm.threadlocal.address.p0(ptr align 8 @_ZN6Thread12_thr_currentE)
  %30 = load ptr, ptr %29, align 8
  %31 = getelementptr inbounds i8, ptr %30, i64 1808
  %32 = load ptr, ptr %31, align 8
  %33 = getelementptr inbounds i8, ptr %32, i64 128
  %34 = load ptr, ptr %33, align 8
  %35 = getelementptr inbounds i8, ptr %34, i64 728
  %36 = load ptr, ptr %35, align 8
  %37 = getelementptr inbounds i8, ptr %36, i64 40
  %38 = load ptr, ptr %37, align 8
  %39 = getelementptr inbounds i8, ptr %36, i64 32
  %40 = load ptr, ptr %39, align 8
  %41 = ptrtoint ptr %38 to i64
  %42 = ptrtoint ptr %40 to i64
  %43 = sub i64 %41, %42
  %.not.i.i.i12 = icmp ult i64 %43, 80
  br i1 %.not.i.i.i12, label %46, label %44

44:                                               ; preds = %28
  %45 = getelementptr inbounds i8, ptr %40, i64 80
  store ptr %45, ptr %39, align 8
  br label %_ZN4NodenwEm.exit14

46:                                               ; preds = %28
  %47 = tail call noundef ptr @_ZN5Arena4growEmN17AllocFailStrategy13AllocFailEnumE(ptr noundef nonnull align 8 dereferenceable(48) %36, i64 noundef 80, i32 noundef 0) #6
  br label %_ZN4NodenwEm.exit14

_ZN4NodenwEm.exit14:                              ; preds = %44, %46
  %.0.i.i.i13 = phi ptr [ %40, %44 ], [ %47, %46 ]
  %48 = icmp eq ptr %.0.i.i.i13, null
  br i1 %48, label %53, label %49

49:                                               ; preds = %_ZN4NodenwEm.exit14
  tail call void @_ZN10CastLLNodeC2EP4NodeS1_PK4TypeN18ConstraintCastNode14DependencyTypeEPK9TypeTuple(ptr noundef nonnull align 8 dereferenceable(80) %.0.i.i.i13, ptr noundef %0, ptr noundef %1, ptr noundef %2, i32 noundef %3, ptr noundef null)
  br label %53

50:                                               ; preds = %5
  %51 = load ptr, ptr @g_assert_poison, align 8
  store i8 88, ptr %51, align 1
  %52 = tail call noundef ptr @_Z9type2name9BasicType(i8 noundef zeroext %4) #6
  tail call void (i32, ptr, i32, ptr, ...) @_Z12report_fatal11VMErrorTypePKciS1_z(i32 noundef -536870912, ptr noundef nonnull @.str, i32 noundef 133, ptr noundef nonnull @.str.4, ptr noundef %52) #7
  unreachable

53:                                               ; preds = %_ZN4NodenwEm.exit14, %49, %_ZN4NodenwEm.exit, %27
  %.0 = phi ptr [ %.0.i.i.i, %27 ], [ null, %_ZN4NodenwEm.exit ], [ %.0.i.i.i13, %49 ], [ null, %_ZN4NodenwEm.exit14 ]
  ret ptr %.0
}